target datalayout = "e-m:e-p270:32:32-p271:32:32-p272:64:64-i64:64-i128:128-f80:128-n8:16:32:64-S128"
target triple = "x86_64-pc-linux-gnu"

%struct.DdManager = type { %struct.DdNode, ptr, ptr, ptr, ptr, ptr, ptr, ptr, i32, i32, double, double, double, i32, i32, i32, i32, i32, i32, ptr, ptr, %struct.DdSubtable, i32, i32, i32, i32, i32, i32, i32, double, i32, i32, i32, ptr, i64, double, i32, ptr, ptr, ptr, ptr, ptr, ptr, ptr, i32, ptr, ptr, ptr, ptr, ptr, ptr, i32, i32, i32, double, i32, i32, i32, i32, double, double, i32, i32, i32, i32, i32, i32, i32, i32, i32, ptr, ptr, i32, i32, i32, i32, i32, i32, ptr, ptr, ptr, ptr, ptr, ptr, ptr, ptr, i32, i64, i64, i64, i32, i64, i64, double, double, double, double, double, double, i32, ptr, ptr, i64 }
%struct.DdNode = type { i32, i32, ptr, %union.anon, i64 }
%union.anon = type { %struct.DdChildren }
%struct.DdChildren = type { ptr, ptr }
%struct.DdSubtable = type { ptr, i32, i32, i32, i32, i32, i32, i32, i32, i32, i32, i32 }
%struct.Move = type { i32, i32, i32, i32, ptr }

; Function Attrs: nounwind uwtable
define internal ptr @cuddZddSymmSifting_up(ptr noundef %0, i32 noundef %1, i32 noundef %2, i32 noundef %3) #0 {
  %5 = alloca ptr, align 8
  %6 = alloca ptr, align 8
  %7 = alloca i32, align 4
  %8 = alloca i32, align 4
  %9 = alloca i32, align 4
  %10 = alloca ptr, align 8
  %11 = alloca ptr, align 8
  %12 = alloca i32, align 4
  %13 = alloca i32, align 4
  %14 = alloca i32, align 4
  %15 = alloca i32, align 4
  %16 = alloca i32, align 4
  %17 = alloca i32, align 4
  store ptr %0, ptr %6, align 8, !tbaa !3
  store i32 %1, ptr %7, align 4, !tbaa !8
  store i32 %2, ptr %8, align 4, !tbaa !8
  store i32 %3, ptr %9, align 4, !tbaa !8
  call void @llvm.lifetime.start.p0(i64 8, ptr %10) #5
  call void @llvm.lifetime.start.p0(i64 8, ptr %11) #5
  call void @llvm.lifetime.start.p0(i64 4, ptr %12) #5
  call void @llvm.lifetime.start.p0(i64 4, ptr %13) #5
  call void @llvm.lifetime.start.p0(i64 4, ptr %14) #5
  %18 = load i32, ptr %9, align 4, !tbaa !8
  store i32 %18, ptr %14, align 4, !tbaa !8
  call void @llvm.lifetime.start.p0(i64 4, ptr %15) #5
  call void @llvm.lifetime.start.p0(i64 4, ptr %16) #5
  store ptr null, ptr %10, align 8, !tbaa !56
  %19 = load ptr, ptr %6, align 8, !tbaa !3
  %20 = load i32, ptr %7, align 4, !tbaa !8
  %21 = call i32 @cuddZddNextLow(ptr noundef %19, i32 noundef %20)
  store i32 %21, ptr %12, align 4, !tbaa !8
  br label %22

22:                                               ; preds = %178, %4
  %23 = load i32, ptr %12, align 4, !tbaa !8
  %24 = load i32, ptr %8, align 4, !tbaa !8
  %25 = icmp sge i32 %23, %24
  br i1 %25, label %26, label %183

26:                                               ; preds = %22
  %27 = load ptr, ptr %6, align 8, !tbaa !3
  %28 = getelementptr inbounds nuw %struct.DdManager, ptr %27, i32 0, i32 20
  %29 = load ptr, ptr %28, align 8, !tbaa !10
  %30 = load i32, ptr %12, align 4, !tbaa !8
  %31 = sext i32 %30 to i64
  %32 = getelementptr inbounds %struct.DdSubtable, ptr %29, i64 %31
  %33 = getelementptr inbounds nuw %struct.DdSubtable, ptr %32, i32 0, i32 6
  %34 = load i32, ptr %33, align 4, !tbaa !27
  store i32 %34, ptr %16, align 4, !tbaa !8
  %35 = load ptr, ptr %6, align 8, !tbaa !3
  %36 = load i32, ptr %12, align 4, !tbaa !8
  %37 = load i32, ptr %7, align 4, !tbaa !8
  %38 = call i32 @cuddZddSymmCheck(ptr noundef %35, i32 noundef %36, i32 noundef %37)
  %39 = icmp ne i32 %38, 0
  br i1 %39, label %40, label %86

40:                                               ; preds = %26
  %41 = load i32, ptr %7, align 4, !tbaa !8
  %42 = load ptr, ptr %6, align 8, !tbaa !3
  %43 = getelementptr inbounds nuw %struct.DdManager, ptr %42, i32 0, i32 20
  %44 = load ptr, ptr %43, align 8, !tbaa !10
  %45 = load i32, ptr %12, align 4, !tbaa !8
  %46 = sext i32 %45 to i64
  %47 = getelementptr inbounds %struct.DdSubtable, ptr %44, i64 %46
  %48 = getelementptr inbounds nuw %struct.DdSubtable, ptr %47, i32 0, i32 6
  store i32 %41, ptr %48, align 4, !tbaa !27
  %49 = load ptr, ptr %6, align 8, !tbaa !3
  %50 = getelementptr inbounds nuw %struct.DdManager, ptr %49, i32 0, i32 20
  %51 = load ptr, ptr %50, align 8, !tbaa !10
  %52 = load i32, ptr %7, align 4, !tbaa !8
  %53 = sext i32 %52 to i64
  %54 = getelementptr inbounds %struct.DdSubtable, ptr %51, i64 %53
  %55 = getelementptr inbounds nuw %struct.DdSubtable, ptr %54, i32 0, i32 6
  %56 = load i32, ptr %55, align 4, !tbaa !27
  store i32 %56, ptr %15, align 4, !tbaa !8
  br label %57

57:                                               ; preds = %68, %40
  %58 = load ptr, ptr %6, align 8, !tbaa !3
  %59 = getelementptr inbounds nuw %struct.DdManager, ptr %58, i32 0, i32 20
  %60 = load ptr, ptr %59, align 8, !tbaa !10
  %61 = load i32, ptr %15, align 4, !tbaa !8
  %62 = sext i32 %61 to i64
  %63 = getelementptr inbounds %struct.DdSubtable, ptr %60, i64 %62
  %64 = getelementptr inbounds nuw %struct.DdSubtable, ptr %63, i32 0, i32 6
  %65 = load i32, ptr %64, align 4, !tbaa !27
  %66 = load i32, ptr %7, align 4, !tbaa !8
  %67 = icmp ne i32 %65, %66
  br i1 %67, label %68, label %77

68:                                               ; preds = %57
  %69 = load ptr, ptr %6, align 8, !tbaa !3
  %70 = getelementptr inbounds nuw %struct.DdManager, ptr %69, i32 0, i32 20
  %71 = load ptr, ptr %70, align 8, !tbaa !10
  %72 = load i32, ptr %15, align 4, !tbaa !8
  %73 = sext i32 %72 to i64
  %74 = getelementptr inbounds %struct.DdSubtable, ptr %71, i64 %73
  %75 = getelementptr inbounds nuw %struct.DdSubtable, ptr %74, i32 0, i32 6
  %76 = load i32, ptr %75, align 4, !tbaa !27
  store i32 %76, ptr %15, align 4, !tbaa !8
  br label %57, !llvm.loop !117

77:                                               ; preds = %57
  %78 = load i32, ptr %16, align 4, !tbaa !8
  %79 = load ptr, ptr %6, align 8, !tbaa !3
  %80 = getelementptr inbounds nuw %struct.DdManager, ptr %79, i32 0, i32 20
  %81 = load ptr, ptr %80, align 8, !tbaa !10
  %82 = load i32, ptr %15, align 4, !tbaa !8
  %83 = sext i32 %82 to i64
  %84 = getelementptr inbounds %struct.DdSubtable, ptr %81, i64 %83
  %85 = getelementptr inbounds nuw %struct.DdSubtable, ptr %84, i32 0, i32 6
  store i32 %78, ptr %85, align 4, !tbaa !27
  br label %178

86:                                               ; preds = %26
  %87 = load ptr, ptr %6, align 8, !tbaa !3
  %88 = getelementptr inbounds nuw %struct.DdManager, ptr %87, i32 0, i32 20
  %89 = load ptr, ptr %88, align 8, !tbaa !10
  %90 = load i32, ptr %7, align 4, !tbaa !8
  %91 = sext i32 %90 to i64
  %92 = getelementptr inbounds %struct.DdSubtable, ptr %89, i64 %91
  %93 = getelementptr inbounds nuw %struct.DdSubtable, ptr %92, i32 0, i32 6
  %94 = load i32, ptr %93, align 4, !tbaa !27
  %95 = load i32, ptr %7, align 4, !tbaa !8
  %96 = icmp eq i32 %94, %95
  br i1 %96, label %97, label %154

97:                                               ; preds = %86
  %98 = load ptr, ptr %6, align 8, !tbaa !3
  %99 = getelementptr inbounds nuw %struct.DdManager, ptr %98, i32 0, i32 20
  %100 = load ptr, ptr %99, align 8, !tbaa !10
  %101 = load i32, ptr %12, align 4, !tbaa !8
  %102 = sext i32 %101 to i64
  %103 = getelementptr inbounds %struct.DdSubtable, ptr %100, i64 %102
  %104 = getelementptr inbounds nuw %struct.DdSubtable, ptr %103, i32 0, i32 6
  %105 = load i32, ptr %104, align 4, !tbaa !27
  %106 = load i32, ptr %12, align 4, !tbaa !8
  %107 = icmp eq i32 %105, %106
  br i1 %107, label %108, label %154

108:                                              ; preds = %97
  %109 = load ptr, ptr %6, align 8, !tbaa !3
  %110 = load i32, ptr %12, align 4, !tbaa !8
  %111 = load i32, ptr %7, align 4, !tbaa !8
  %112 = call i32 @cuddZddSwapInPlace(ptr noundef %109, i32 noundef %110, i32 noundef %111)
  store i32 %112, ptr %13, align 4, !tbaa !8
  %113 = load i32, ptr %13, align 4, !tbaa !8
  %114 = icmp eq i32 %113, 0
  br i1 %114, label %115, label %116

115:                                              ; preds = %108
  br label %185

116:                                              ; preds = %108
  %117 = load ptr, ptr %6, align 8, !tbaa !3
  %118 = call ptr @cuddDynamicAllocNode(ptr noundef %117)
  store ptr %118, ptr %11, align 8, !tbaa !56
  %119 = load ptr, ptr %11, align 8, !tbaa !56
  %120 = icmp eq ptr %119, null
  br i1 %120, label %121, label %122

121:                                              ; preds = %116
  br label %185

122:                                              ; preds = %116
  %123 = load i32, ptr %12, align 4, !tbaa !8
  %124 = load ptr, ptr %11, align 8, !tbaa !56
  %125 = getelementptr inbounds nuw %struct.Move, ptr %124, i32 0, i32 0
  store i32 %123, ptr %125, align 8, !tbaa !67
  %126 = load i32, ptr %7, align 4, !tbaa !8
  %127 = load ptr, ptr %11, align 8, !tbaa !56
  %128 = getelementptr inbounds nuw %struct.Move, ptr %127, i32 0, i32 1
  store i32 %126, ptr %128, align 4, !tbaa !62
  %129 = load i32, ptr %13, align 4, !tbaa !8
  %130 = load ptr, ptr %11, align 8, !tbaa !56
  %131 = getelementptr inbounds nuw %struct.Move, ptr %130, i32 0, i32 3
  store i32 %129, ptr %131, align 4, !tbaa !111
  %132 = load ptr, ptr %10, align 8, !tbaa !56
  %133 = load ptr, ptr %11, align 8, !tbaa !56
  %134 = getelementptr inbounds nuw %struct.Move, ptr %133, i32 0, i32 4
  store ptr %132, ptr %134, align 8, !tbaa !72
  %135 = load ptr, ptr %11, align 8, !tbaa !56
  store ptr %135, ptr %10, align 8, !tbaa !56
  %136 = load i32, ptr %13, align 4, !tbaa !8
  %137 = sitofp i32 %136 to double
  %138 = load i32, ptr %14, align 4, !tbaa !8
  %139 = sitofp i32 %138 to double
  %140 = load ptr, ptr %6, align 8, !tbaa !3
  %141 = getelementptr inbounds nuw %struct.DdManager, ptr %140, i32 0, i32 59
  %142 = load double, ptr %141, align 8, !tbaa !112
  %143 = fmul double %139, %142
  %144 = fcmp ogt double %137, %143
  br i1 %144, label %145, label %147

145:                                              ; preds = %122
  %146 = load ptr, ptr %10, align 8, !tbaa !56
  store ptr %146, ptr %5, align 8
  store i32 1, ptr %17, align 4
  br label %205

147:                                              ; preds = %122
  %148 = load i32, ptr %13, align 4, !tbaa !8
  %149 = load i32, ptr %14, align 4, !tbaa !8
  %150 = icmp slt i32 %148, %149
  br i1 %150, label %151, label %153

151:                                              ; preds = %147
  %152 = load i32, ptr %13, align 4, !tbaa !8
  store i32 %152, ptr %14, align 4, !tbaa !8
  br label %153

153:                                              ; preds = %151, %147
  br label %177

154:                                              ; preds = %97, %86
  %155 = load ptr, ptr %6, align 8, !tbaa !3
  %156 = load i32, ptr %12, align 4, !tbaa !8
  %157 = load i32, ptr %7, align 4, !tbaa !8
  %158 = call i32 @zdd_group_move(ptr noundef %155, i32 noundef %156, i32 noundef %157, ptr noundef %10)
  store i32 %158, ptr %13, align 4, !tbaa !8
  %159 = load i32, ptr %13, align 4, !tbaa !8
  %160 = sitofp i32 %159 to double
  %161 = load i32, ptr %14, align 4, !tbaa !8
  %162 = sitofp i32 %161 to double
  %163 = load ptr, ptr %6, align 8, !tbaa !3
  %164 = getelementptr inbounds nuw %struct.DdManager, ptr %163, i32 0, i32 59
  %165 = load double, ptr %164, align 8, !tbaa !112
  %166 = fmul double %162, %165
  %167 = fcmp ogt double %160, %166
  br i1 %167, label %168, label %170

168:                                              ; preds = %154
  %169 = load ptr, ptr %10, align 8, !tbaa !56
  store ptr %169, ptr %5, align 8
  store i32 1, ptr %17, align 4
  br label %205

170:                                              ; preds = %154
  %171 = load i32, ptr %13, align 4, !tbaa !8
  %172 = load i32, ptr %14, align 4, !tbaa !8
  %173 = icmp slt i32 %171, %172
  br i1 %173, label %174, label %176

174:                                              ; preds = %170
  %175 = load i32, ptr %13, align 4, !tbaa !8
  store i32 %175, ptr %14, align 4, !tbaa !8
  br label %176

176:                                              ; preds = %174, %170
  br label %177

177:                                              ; preds = %176, %153
  br label %178

178:                                              ; preds = %177, %77
  %179 = load i32, ptr %16, align 4, !tbaa !8
  store i32 %179, ptr %7, align 4, !tbaa !8
  %180 = load ptr, ptr %6, align 8, !tbaa !3
  %181 = load i32, ptr %7, align 4, !tbaa !8
  %182 = call i32 @cuddZddNextLow(ptr noundef %180, i32 noundef %181)
  store i32 %182, ptr %12, align 4, !tbaa !8
  br label %22, !llvm.loop !118

183:                                              ; preds = %22
  %184 = load ptr, ptr %10, align 8, !tbaa !56
  store ptr %184, ptr %5, align 8
  store i32 1, ptr %17, align 4
  br label %205

185:                                              ; preds = %121, %115
  br label %186

186:                                              ; preds = %189, %185
  %187 = load ptr, ptr %10, align 8, !tbaa !56
  %188 = icmp ne ptr %187, null
  br i1 %188, label %189, label %204

189:                                              ; preds = %186
  %190 = load ptr, ptr %10, align 8, !tbaa !56
  %191 = getelementptr inbounds nuw %struct.Move, ptr %190, i32 0, i32 4
  %192 = load ptr, ptr %191, align 8, !tbaa !72
  store ptr %192, ptr %11, align 8, !tbaa !56
  %193 = load ptr, ptr %10, align 8, !tbaa !56
  %194 = getelementptr inbounds nuw %struct.DdNode, ptr %193, i32 0, i32 1
  store i32 0, ptr %194, align 4, !tbaa !42
  %195 = load ptr, ptr %6, align 8, !tbaa !3
  %196 = getelementptr inbounds nuw %struct.DdManager, ptr %195, i32 0, i32 48
  %197 = load ptr, ptr %196, align 8, !tbaa !73
  %198 = load ptr, ptr %10, align 8, !tbaa !56
  %199 = getelementptr inbounds nuw %struct.DdNode, ptr %198, i32 0, i32 2
  store ptr %197, ptr %199, align 8, !tbaa !39
  %200 = load ptr, ptr %10, align 8, !tbaa !56
  %201 = load ptr, ptr %6, align 8, !tbaa !3
  %202 = getelementptr inbounds nuw %struct.DdManager, ptr %201, i32 0, i32 48
  store ptr %200, ptr %202, align 8, !tbaa !73
  %203 = load ptr, ptr %11, align 8, !tbaa !56
  store ptr %203, ptr %10, align 8, !tbaa !56
  br label %186, !llvm.loop !119

204:                                              ; preds = %186
  store ptr inttoptr (i64 1 to ptr), ptr %5, align 8
  store i32 1, ptr %17, align 4
  br label %205

205:                                              ; preds = %204, %183, %168, %145
  call void @llvm.lifetime.end.p0(i64 4, ptr %16) #5
  call void @llvm.lifetime.end.p0(i64 4, ptr %15) #5
  call void @llvm.lifetime.end.p0(i64 4, ptr %14) #5
  call void @llvm.lifetime.end.p0(i64 4, ptr %13) #5
  call void @llvm.lifetime.end.p0(i64 4, ptr %12) #5
  call void @llvm.lifetime.end.p0(i64 8, ptr %11) #5
  call void @llvm.lifetime.end.p0(i64 8, ptr %10) #5
  %206 = load ptr, ptr %5, align 8
  ret ptr %206
}