; Function Attrs: nounwind uwtable
define internal fastcc ptr @cuddZddSymmSifting_up(ptr noundef %0, i32 noundef %1, i32 noundef %2, i32 noundef %3) unnamed_addr #4 {
  %5 = alloca ptr, align 8
  call void @llvm.lifetime.start.p0(i64 8, ptr nonnull %5) #11
  store ptr null, ptr %5, align 8, !tbaa !102
  %6 = tail call i32 @cuddZddNextLow(ptr noundef %0, i32 noundef %1) #11
  %.not79 = icmp slt i32 %6, %2
  br i1 %.not79, label %.loopexit77, label %.lr.ph

.lr.ph:                                           ; preds = %4
  %7 = getelementptr inbounds nuw i8, ptr %0, i64 160
  %8 = getelementptr inbounds nuw i8, ptr %0, i64 464
  br label %9

9:                                                ; preds = %.lr.ph, %61
  %.06582 = phi i32 [ %3, %.lr.ph ], [ %.1, %61 ]
  %.06681 = phi i32 [ %6, %.lr.ph ], [ %62, %61 ]
  %.06780 = phi i32 [ %1, %.lr.ph ], [ %13, %61 ]
  %10 = load ptr, ptr %7, align 8, !tbaa !3
  %11 = sext i32 %.06681 to i64
  %12 = getelementptr inbounds %struct.DdSubtable, ptr %10, i64 %11, i32 6
  %13 = load i32, ptr %12, align 4, !tbaa !24
  %14 = tail call i32 @cuddZddSymmCheck(ptr noundef %0, i32 noundef %.06681, i32 noundef %.06780)
  %.not73 = icmp eq i32 %14, 0
  %15 = load ptr, ptr %7, align 8, !tbaa !3
  br i1 %.not73, label %26, label %16

16:                                               ; preds = %9
  %17 = getelementptr inbounds %struct.DdSubtable, ptr %15, i64 %11, i32 6
  store i32 %.06780, ptr %17, align 4, !tbaa !24
  %18 = sext i32 %.06780 to i64
  %19 = getelementptr inbounds %struct.DdSubtable, ptr %15, i64 %18, i32 6
  %20 = load i32, ptr %19, align 4, !tbaa !24
  br label %21

21:                                               ; preds = %21, %16
  %.064 = phi i32 [ %20, %16 ], [ %24, %21 ]
  %22 = sext i32 %.064 to i64
  %23 = getelementptr inbounds %struct.DdSubtable, ptr %15, i64 %22, i32 6
  %24 = load i32, ptr %23, align 4, !tbaa !24
  %.not75 = icmp eq i32 %24, %.06780
  br i1 %.not75, label %25, label %21, !llvm.loop !114

25:                                               ; preds = %21
  store i32 %13, ptr %23, align 4, !tbaa !24
  br label %61

26:                                               ; preds = %9
  %27 = sext i32 %.06780 to i64
  %28 = getelementptr inbounds %struct.DdSubtable, ptr %15, i64 %27, i32 6
  %29 = load i32, ptr %28, align 4, !tbaa !24
  %30 = icmp eq i32 %29, %.06780
  br i1 %30, label %31, label %51

31:                                               ; preds = %26
  %32 = getelementptr inbounds %struct.DdSubtable, ptr %15, i64 %11, i32 6
  %33 = load i32, ptr %32, align 4, !tbaa !24
  %34 = icmp eq i32 %33, %.06681
  br i1 %34, label %35, label %51

35:                                               ; preds = %31
  %36 = tail call i32 @cuddZddSwapInPlace(ptr noundef nonnull %0, i32 noundef %.06681, i32 noundef %.06780) #11
  %37 = icmp eq i32 %36, 0
  br i1 %37, label %._crit_edge92, label %38

._crit_edge92:                                    ; preds = %35
  %.pr.pre = load ptr, ptr %5, align 8, !tbaa !102
  br label %split

38:                                               ; preds = %35
  %39 = tail call ptr @cuddDynamicAllocNode(ptr noundef nonnull %0) #11
  %40 = icmp eq ptr %39, null
  %.pr.pre93 = load ptr, ptr %5, align 8, !tbaa !102
  br i1 %40, label %split, label %41

41:                                               ; preds = %38
  store i32 %.06681, ptr %39, align 8, !tbaa !65
  %42 = getelementptr inbounds nuw i8, ptr %39, i64 4
  store i32 %.06780, ptr %42, align 4, !tbaa !59
  %43 = getelementptr inbounds nuw i8, ptr %39, i64 12
  store i32 %36, ptr %43, align 4, !tbaa !105
  %44 = getelementptr inbounds nuw i8, ptr %39, i64 16
  store ptr %.pr.pre93, ptr %44, align 8, !tbaa !71
  store ptr %39, ptr %5, align 8, !tbaa !102
  %45 = sitofp i32 %36 to double
  %46 = sitofp i32 %.06582 to double
  %47 = load double, ptr %8, align 8, !tbaa !106
  %48 = fmul double %47, %46
  %49 = fcmp olt double %48, %45
  br i1 %49, label %.loopexit77, label %50

50:                                               ; preds = %41
  %spec.select = tail call i32 @llvm.smin.i32(i32 %36, i32 %.06582)
  br label %61

51:                                               ; preds = %31, %26
  %52 = call fastcc i32 @zdd_group_move(ptr noundef nonnull %0, i32 noundef %.06681, i32 noundef %.06780, ptr noundef %5)
  %53 = sitofp i32 %52 to double
  %54 = sitofp i32 %.06582 to double
  %55 = load double, ptr %8, align 8, !tbaa !106
  %56 = fmul double %55, %54
  %57 = fcmp olt double %56, %53
  br i1 %57, label %58, label %60

58:                                               ; preds = %51
  %59 = load ptr, ptr %5, align 8, !tbaa !102
  br label %.loopexit77

60:                                               ; preds = %51
  %spec.select76 = tail call i32 @llvm.smin.i32(i32 %52, i32 %.06582)
  br label %61

61:                                               ; preds = %60, %50, %25
  %.1 = phi i32 [ %.06582, %25 ], [ %spec.select, %50 ], [ %spec.select76, %60 ]
  %62 = tail call i32 @cuddZddNextLow(ptr noundef %0, i32 noundef %13) #11
  %.not = icmp slt i32 %62, %2
  br i1 %.not, label %._crit_edge.loopexit, label %9, !llvm.loop !115

._crit_edge.loopexit:                             ; preds = %61
  %.pre = load ptr, ptr %5, align 8, !tbaa !102
  br label %.loopexit77

split:                                            ; preds = %38, %._crit_edge92
  %.pr = phi ptr [ %.pr.pre, %._crit_edge92 ], [ %.pr.pre93, %38 ]
  %.not7484 = icmp eq ptr %.pr, null
  br i1 %.not7484, label %.loopexit77, label %.lr.ph86

.lr.ph86:                                         ; preds = %split
  %63 = getelementptr inbounds nuw i8, ptr %0, i64 400
  %.promoted87 = load ptr, ptr %63, align 8, !tbaa !70
  br label %64

64:                                               ; preds = %.lr.ph86, %64
  %65 = phi ptr [ %.promoted87, %.lr.ph86 ], [ %66, %64 ]
  %66 = phi ptr [ %.pr, %.lr.ph86 ], [ %68, %64 ]
  %67 = getelementptr inbounds nuw i8, ptr %66, i64 16
  %68 = load ptr, ptr %67, align 8, !tbaa !71
  %69 = getelementptr inbounds nuw i8, ptr %66, i64 4
  store i32 0, ptr %69, align 4, !tbaa !40
  %70 = getelementptr inbounds nuw i8, ptr %66, i64 8
  store ptr %65, ptr %70, align 8, !tbaa !72
  %.not74 = icmp eq ptr %68, null
  br i1 %.not74, label %..loopexit_crit_edge, label %64, !llvm.loop !116

..loopexit_crit_edge:                             ; preds = %64
  store ptr %66, ptr %63, align 8, !tbaa !70
  br label %.loopexit77

.loopexit77:                                      ; preds = %41, %split, %..loopexit_crit_edge, %4, %._crit_edge.loopexit, %58
  %.0 = phi ptr [ %59, %58 ], [ %.pre, %._crit_edge.loopexit ], [ null, %4 ], [ inttoptr (i64 1 to ptr), %..loopexit_crit_edge ], [ inttoptr (i64 1 to ptr), %split ], [ %39, %41 ]
  call void @llvm.lifetime.end.p0(i64 8, ptr nonnull %5) #11
  ret ptr %.0
}